target datalayout = "e-m:e-p270:32:32-p271:32:32-p272:64:64-i64:64-i128:128-f80:128-n8:16:32:64-S128"
target triple = "x86_64-unknown-linux-gnu"

%class.symbol = type { ptr }
%"class.q::solver" = type { %"class.euf::th_euf_solver.base", %"struct.q::solver::stats", %"class.q::mbqi", %"class.q::ematch", %class.obj_map.136, %class.svector.141, %class.obj_map.143, %class.ref_vector, %class.der_rewriter }
%"class.euf::th_euf_solver.base" = type <{ %"class.euf::th_solver", ptr, %class.ptr_vector, %class.svector.1, i32 }>
%"class.euf::th_solver" = type { %"class.sat::extension", %"class.euf::th_model_builder", %"class.euf::th_decompile", %"class.euf::th_internalizer", ptr }
%"class.sat::extension" = type { ptr, i8, i32, %class.symbol, ptr }
%"class.euf::th_model_builder" = type { ptr }
%"class.euf::th_decompile" = type { ptr }
%"class.euf::th_internalizer" = type { ptr, %class.ptr_vector, %class.svector }
%class.svector = type { %class.vector.0 }
%class.vector.0 = type { ptr }
%class.ptr_vector = type { %class.vector }
%class.vector = type { ptr }
%class.svector.1 = type { %class.vector.2 }
%class.vector.2 = type { ptr }
%"struct.q::solver::stats" = type { i32 }
%"class.q::mbqi" = type { ptr, ptr, ptr, %"struct.q::mbqi::stats", %"class.q::model_fixer", %class.ref, %"struct.sat::no_drat_params", %class.ref.17, %class.scoped_ptr_vector.18, %class.scoped_ptr_vector.21, %class.obj_map.24, i32, i32, i32, i32, i32, i32, %class.vector.29, %class.vector.30 }
%"struct.q::mbqi::stats" = type { i32, i32 }
%"class.q::model_fixer" = type { %class.quantifier2macro_infos, ptr, ptr, ptr, %class.obj_map, %class.func_decl_dependencies, %class.obj_map.8, %class.map, %class.scoped_ptr_vector }
%class.quantifier2macro_infos = type { ptr }
%class.obj_map = type { %class.core_hashtable }
%class.core_hashtable = type <{ ptr, i32, i32, i32, [4 x i8] }>
%class.func_decl_dependencies = type { ptr, %class.obj_map.3 }
%class.obj_map.3 = type { %class.core_hashtable.4 }
%class.core_hashtable.4 = type <{ ptr, i32, i32, i32, [4 x i8] }>
%class.obj_map.8 = type { %class.core_hashtable.9 }
%class.core_hashtable.9 = type <{ ptr, i32, i32, i32, [4 x i8] }>
%class.map = type { %class.table2map }
%class.table2map = type { %class.core_hashtable.13 }
%class.core_hashtable.13 = type <{ ptr, i32, i32, i32, [4 x i8] }>
%class.scoped_ptr_vector = type { %class.ptr_vector.15 }
%class.ptr_vector.15 = type { %class.vector.16 }
%class.vector.16 = type { ptr }
%class.ref = type { ptr }
%"struct.sat::no_drat_params" = type { %class.params_ref }
%class.params_ref = type { ptr }
%class.ref.17 = type { ptr }
%class.scoped_ptr_vector.18 = type { %class.ptr_vector.19 }
%class.ptr_vector.19 = type { %class.vector.20 }
%class.vector.20 = type { ptr }
%class.scoped_ptr_vector.21 = type { %class.ptr_vector.22 }
%class.ptr_vector.22 = type { %class.vector.23 }
%class.vector.23 = type { ptr }
%class.obj_map.24 = type { %class.core_hashtable.25 }
%class.core_hashtable.25 = type <{ ptr, i32, i32, i32, [4 x i8] }>
%class.vector.29 = type { ptr }
%class.vector.30 = type { ptr }
%"class.q::ematch" = type { ptr, ptr, ptr, %"class.q::eval", %"class.q::quantifier_stat_gen", %class.ptr_hashtable, %class.scoped_ptr, i32, %"class.q::queue", %class.svector.79, %class.pattern_inference_rw, %class.scoped_ptr.121, %class.scoped_ptr.121, %class.ptr_vector.122, %class.obj_map.124, %class.vector.129, %"struct.q::ematch::stats", %class.ast_fast_mark, i32, %class.ptr_vector.62, i8, %class.nat_set, %class.nat_set, i32, %class.svector.1, %class.svector.130, i8, %class.ptr_vector.132, %class.svector.134, %class.ref_vector, %class.ref_vector.59, %class.defined_names, %class.nnf }
%"class.q::eval" = type { ptr, ptr, %class.ast_fast_mark, %class.ptr_vector, %class.ptr_vector, i8, %"struct.std::pair", %class.contains_vars }
%"struct.std::pair" = type { ptr, ptr }
%class.contains_vars = type { ptr }
%"class.q::quantifier_stat_gen" = type <{ ptr, ptr, %class.obj_map.31, %class.svector.36, %class.approx_nat, [4 x i8] }>
%class.obj_map.31 = type { %class.core_hashtable.32 }
%class.core_hashtable.32 = type <{ ptr, i32, i32, i32, [4 x i8] }>
%class.svector.36 = type { %class.vector.37 }
%class.vector.37 = type { ptr }
%class.approx_nat = type { i32 }
%class.ptr_hashtable = type { %class.core_hashtable.base.39, [4 x i8] }
%class.core_hashtable.base.39 = type <{ ptr, i32, i32, i32 }>
%class.scoped_ptr = type { ptr }
%"class.q::queue" = type { ptr, ptr, ptr, ptr, %"struct.q::queue::stats", %class.obj_ref, %class.obj_ref, %class.cost_parser, %class.cost_evaluator, %class.cached_var_subst, %class.svector.75, double, %class.svector.77, %class.svector.77 }
%"struct.q::queue::stats" = type { i32, i32 }
%class.obj_ref = type { ptr, ptr }
%class.cost_parser = type { %class.simple_parser, %class.arith_util, %class.ref_vector.50 }
%class.simple_parser = type { ptr, ptr, %class.map.40, %class.map.44, %class.ref_vector }
%class.map.40 = type { %class.table2map.41 }
%class.table2map.41 = type { %class.core_hashtable.42 }
%class.core_hashtable.42 = type <{ ptr, i32, i32, i32, [4 x i8] }>
%class.map.44 = type { %class.table2map.45 }
%class.table2map.45 = type { %class.core_hashtable.46 }
%class.core_hashtable.46 = type <{ ptr, i32, i32, i32, [4 x i8] }>
%class.arith_util = type { ptr, ptr }
%class.ref_vector.50 = type { %class.ref_vector_core.51 }
%class.ref_vector_core.51 = type { %class.ref_manager_wrapper.52, %class.ptr_vector.53 }
%class.ref_manager_wrapper.52 = type { ptr }
%class.ptr_vector.53 = type { %class.vector.54 }
%class.vector.54 = type { ptr }
%class.cost_evaluator = type { ptr, %class.arith_util, i32, ptr }
%class.cached_var_subst = type { ptr, %class.var_subst, %class.ref_vector, %class.map.69, %class.region, %class.ptr_vector.73, ptr }
%class.var_subst = type { %class.beta_reducer, i8, [7 x i8] }
%class.beta_reducer = type <{ %class.rewriter_tpl, %struct.beta_reducer_cfg, [7 x i8] }>
%class.rewriter_tpl = type { %class.rewriter_core, ptr, i32, %class.ptr_vector.48, %class.var_shifter, %class.inv_var_shifter, %class.obj_ref, %class.obj_ref.68, %class.obj_ref.68, %class.svector.1 }
%class.rewriter_core = type { ptr, ptr, i8, i8, %class.ptr_vector.55, ptr, %class.svector.57, %class.ref_vector, %class.ptr_vector.55, ptr, %class.ref_vector.59, %class.obj_hashtable, ptr, i32, %class.svector.66 }
%class.svector.57 = type { %class.vector.58 }
%class.vector.58 = type { ptr }
%class.ptr_vector.55 = type { %class.vector.56 }
%class.vector.56 = type { ptr }
%class.obj_hashtable = type { %class.core_hashtable.base.65, [4 x i8] }
%class.core_hashtable.base.65 = type <{ ptr, i32, i32, i32 }>
%class.svector.66 = type { %class.vector.67 }
%class.vector.67 = type { ptr }
%class.ptr_vector.48 = type { %class.vector.49 }
%class.vector.49 = type { ptr }
%class.var_shifter = type <{ %class.var_shifter_core, i32, i32, i32, [4 x i8] }>
%class.var_shifter_core = type { %class.rewriter_core }
%class.inv_var_shifter = type <{ %class.var_shifter_core, i32, [4 x i8] }>
%class.obj_ref.68 = type { ptr, ptr }
%struct.beta_reducer_cfg = type { i8 }
%class.map.69 = type { %class.table2map.70 }
%class.table2map.70 = type { %class.core_hashtable.71 }
%class.core_hashtable.71 = type <{ ptr, i32, i32, i32, [4 x i8] }>
%class.region = type { ptr, ptr, ptr, ptr, ptr }
%class.ptr_vector.73 = type { %class.vector.74 }
%class.vector.74 = type { ptr }
%class.svector.75 = type { %class.vector.76 }
%class.vector.76 = type { ptr }
%class.svector.77 = type { %class.vector.78 }
%class.vector.78 = type { ptr }
%class.svector.79 = type { %class.vector.80 }
%class.vector.80 = type { ptr }
%class.pattern_inference_rw = type { %class.rewriter_tpl.81, %class.pattern_inference_cfg }
%class.rewriter_tpl.81 = type { %class.rewriter_core, ptr, i32, %class.ptr_vector.48, %class.var_shifter, %class.inv_var_shifter, %class.obj_ref, %class.obj_ref.68, %class.obj_ref.68, %class.svector.1 }
%class.pattern_inference_cfg = type { ptr, ptr, i32, i32, %class.svector.82, %class.obj_hashtable.84, %class.smaller_pattern, i32, i32, ptr, i8, i8, i8, [5 x i8], %class.obj_map.95, %class.ref_vector.59, %class.ptr_vector.62, %class.ptr_vector.62, %class.ptr_vector.62, %"struct.pattern_inference_cfg::pattern_weight_lt", %"class.pattern_inference_cfg::collect", %"class.pattern_inference_cfg::contains_subpattern", %class.ptr_vector.110, %class.expr_pattern_match, %class.ptr_buffer.119 }
%class.svector.82 = type { %class.vector.83 }
%class.vector.83 = type { ptr }
%class.obj_hashtable.84 = type { %class.core_hashtable.base.88, [4 x i8] }
%class.core_hashtable.base.88 = type <{ ptr, i32, i32, i32 }>
%class.smaller_pattern = type { %class.ptr_vector.48, %class.svector.90, %class.obj_pair_hashtable }
%class.svector.90 = type { %class.vector.91 }
%class.vector.91 = type { ptr }
%class.obj_pair_hashtable = type { %class.core_hashtable.base.94, [4 x i8] }
%class.core_hashtable.base.94 = type <{ ptr, i32, i32, i32 }>
%class.obj_map.95 = type { %class.core_hashtable.96 }
%class.core_hashtable.96 = type <{ ptr, i32, i32, i32, [4 x i8] }>
%"struct.pattern_inference_cfg::pattern_weight_lt" = type { ptr }
%"class.pattern_inference_cfg::collect" = type { ptr, ptr, i32, i32, %class.map.100, %class.ptr_vector.106, %class.svector.108 }
%class.map.100 = type { %class.table2map.101 }
%class.table2map.101 = type { %class.core_hashtable.102 }
%class.core_hashtable.102 = type <{ ptr, i32, i32, i32, [4 x i8] }>
%class.ptr_vector.106 = type { %class.vector.107 }
%class.vector.107 = type { ptr }
%class.svector.108 = type { %class.vector.109 }
%class.vector.109 = type { ptr }
%"class.pattern_inference_cfg::contains_subpattern" = type { ptr, %class.nat_set, %class.ptr_vector.48 }
%class.ptr_vector.110 = type { %class.vector.111 }
%class.vector.111 = type { ptr }
%class.expr_pattern_match = type { ptr, %class.ref_vector.112, %class.svector.1, %class.svector.117, %class.ptr_vector.48, %class.ptr_vector.53, %class.ptr_vector.53 }
%class.ref_vector.112 = type { %class.ref_vector_core.113 }
%class.ref_vector_core.113 = type { %class.ref_manager_wrapper.114, %class.ptr_vector.115 }
%class.ref_manager_wrapper.114 = type { ptr }
%class.ptr_vector.115 = type { %class.vector.116 }
%class.vector.116 = type { ptr }
%class.svector.117 = type { %class.vector.118 }
%class.vector.118 = type { ptr }
%class.ptr_buffer.119 = type { %class.buffer.120 }
%class.buffer.120 = type { ptr, i32, i32, [16 x %"union.std::aligned_storage<8, 8>::type"] }
%"union.std::aligned_storage<8, 8>::type" = type { [8 x i8] }
%class.scoped_ptr.121 = type { ptr }
%class.ptr_vector.122 = type { %class.vector.123 }
%class.vector.123 = type { ptr }
%class.obj_map.124 = type { %class.core_hashtable.125 }
%class.core_hashtable.125 = type <{ ptr, i32, i32, i32, [4 x i8] }>
%class.vector.129 = type { ptr }
%"struct.q::ematch::stats" = type { i32, i32, i32, i32, i32 }
%class.ast_fast_mark = type { %class.ptr_buffer }
%class.ptr_buffer = type { %class.buffer }
%class.buffer = type { ptr, i32, i32, [16 x %"union.std::aligned_storage<8, 8>::type"] }
%class.ptr_vector.62 = type { %class.vector.63 }
%class.vector.63 = type { ptr }
%class.nat_set = type { i32, %class.svector.1 }
%class.svector.130 = type { %class.vector.131 }
%class.vector.131 = type { ptr }
%class.ptr_vector.132 = type { %class.vector.133 }
%class.vector.133 = type { ptr }
%class.svector.134 = type { %class.vector.135 }
%class.vector.135 = type { ptr }
%class.ref_vector.59 = type { %class.ref_vector_core.60 }
%class.ref_vector_core.60 = type { %class.ref_manager_wrapper.61, %class.ptr_vector.62 }
%class.ref_manager_wrapper.61 = type { ptr }
%class.defined_names = type { ptr, ptr }
%class.nnf = type { ptr }
%class.obj_map.136 = type { %class.core_hashtable.137 }
%class.core_hashtable.137 = type <{ ptr, i32, i32, i32, [4 x i8] }>
%class.svector.141 = type { %class.vector.142 }
%class.vector.142 = type { ptr }
%class.obj_map.143 = type { %class.core_hashtable.144 }
%class.core_hashtable.144 = type <{ ptr, i32, i32, i32, [4 x i8] }>
%class.ref_vector = type { %class.ref_vector_core }
%class.ref_vector_core = type { %class.ref_manager_wrapper, %class.ptr_vector.48 }
%class.ref_manager_wrapper = type { ptr }
%class.der_rewriter = type { ptr }

@.str = private unnamed_addr constant [10 x i8] c"q asserts\00", align 1

; Function Attrs: mustprogress uwtable
define hidden void @_ZNK1q6solver18collect_statisticsER10statistics(ptr noundef nonnull align 8 dereferenceable(3144) %this, ptr noundef nonnull align 8 dereferenceable(16) %st) unnamed_addr #5 align 2 {
entry:
  %this.addr = alloca ptr, align 8
  %st.addr = alloca ptr, align 8
  store ptr %this, ptr %this.addr, align 8
  store ptr %st, ptr %st.addr, align 8
  %this1 = load ptr, ptr %this.addr, align 8
  %0 = load ptr, ptr %st.addr, align 8
  %m_stats = getelementptr inbounds %"class.q::solver", ptr %this1, i32 0, i32 1
  %m_num_quantifier_asserts = getelementptr inbounds %"struct.q::solver::stats", ptr %m_stats, i32 0, i32 0
  %1 = load i32, ptr %m_num_quantifier_asserts, align 4
  call void @_ZN10statistics6updateEPKcj(ptr noundef nonnull align 8 dereferenceable(16) %0, ptr noundef @.str, i32 noundef %1)
  %m_mbqi = getelementptr inbounds %"class.q::solver", ptr %this1, i32 0, i32 2
  %2 = load ptr, ptr %st.addr, align 8
  call void @_ZNK1q4mbqi18collect_statisticsER10statistics(ptr noundef nonnull align 8 dereferenceable(280) %m_mbqi, ptr noundef nonnull align 8 dereferenceable(16) %2)
  %m_ematch = getelementptr inbounds %"class.q::solver", ptr %this1, i32 0, i32 3
  %3 = load ptr, ptr %st.addr, align 8
  call void @_ZNK1q6ematch18collect_statisticsER10statistics(ptr noundef nonnull align 8 dereferenceable(2672) %m_ematch, ptr noundef nonnull align 8 dereferenceable(16) %3)
  ret void
}