; Function Attrs: mustprogress uwtable
define hidden void @_ZNK1q6solver18collect_statisticsER10statistics(ptr noundef nonnull align 8 dereferenceable(3144) %this, ptr noundef nonnull align 8 dereferenceable(16) %st) unnamed_addr #3 align 2 {
entry:
  %m_stats = getelementptr inbounds i8, ptr %this, i64 108
  %0 = load i32, ptr %m_stats, align 4
  tail call void @_ZN10statistics6updateEPKcj(ptr noundef nonnull align 8 dereferenceable(16) %st, ptr noundef nonnull @.str, i32 noundef %0)
  %m_mbqi = getelementptr inbounds i8, ptr %this, i64 112
  tail call void @_ZNK1q4mbqi18collect_statisticsER10statistics(ptr noundef nonnull align 8 dereferenceable(280) %m_mbqi, ptr noundef nonnull align 8 dereferenceable(16) %st)
  %m_ematch = getelementptr inbounds i8, ptr %this, i64 392
  tail call void @_ZNK1q6ematch18collect_statisticsER10statistics(ptr noundef nonnull align 8 dereferenceable(2672) %m_ematch, ptr noundef nonnull align 8 dereferenceable(16) %st)
  ret void
}